; ModuleID = '36/1477.c'
source_filename = "36/1477.c"
target datalayout = "e-m:e-p270:32:32-p271:32:32-p272:64:64-i64:64-f80:128-n8:16:32:64-S128"
target triple = "x86_64-pc-linux-gnu"

@.str = private unnamed_addr constant [5 x i8] c"%s%s\00", align 1
@A = common dso_local global [200 x i8] zeroinitializer, align 16
@B = common dso_local global [200 x i8] zeroinitializer, align 16
@i = common dso_local global i32 0, align 4
@a = common dso_local global [256 x i32] zeroinitializer, align 16
@b = common dso_local global [256 x i32] zeroinitializer, align 16
@.str.1 = private unnamed_addr constant [3 x i8] c"NO\00", align 1
@.str.2 = private unnamed_addr constant [4 x i8] c"YES\00", align 1

; Function Attrs: noinline nounwind uwtable
define dso_local i32 @main() #0 {
  %1 = alloca i32, align 4
  store i32 0, i32* %1, align 4
  %2 = call i32 (i8*, ...) @__isoc99_scanf(i8* getelementptr inbounds ([5 x i8], [5 x i8]* @.str, i64 0, i64 0), i8* getelementptr inbounds ([200 x i8], [200 x i8]* @A, i64 0, i64 0), i8* getelementptr inbounds ([200 x i8], [200 x i8]* @B, i64 0, i64 0))
  store i32 0, i32* @i, align 4
  br label %3

3:                                                ; preds = %10, %0
  %4 = load i32, i32* @i, align 4
  %5 = sext i32 %4 to i64
  %6 = getelementptr inbounds [200 x i8], [200 x i8]* @A, i64 0, i64 %5
  %7 = load i8, i8* %6, align 1
  %8 = sext i8 %7 to i32
  %9 = icmp ne i32 %8, 0
  br i1 %9, label %10, label %21

10:                                               ; preds = %3
  %11 = load i32, i32* @i, align 4
  %12 = sext i32 %11 to i64
  %13 = getelementptr inbounds [200 x i8], [200 x i8]* @A, i64 0, i64 %12
  %14 = load i8, i8* %13, align 1
  %15 = sext i8 %14 to i64
  %16 = getelementptr inbounds [256 x i32], [256 x i32]* @a, i64 0, i64 %15
  %17 = load i32, i32* %16, align 4
  %18 = add nsw i32 %17, 1
  store i32 %18, i32* %16, align 4
  %19 = load i32, i32* @i, align 4
  %20 = add nsw i32 %19, 1
  store i32 %20, i32* @i, align 4
  br label %3

21:                                               ; preds = %3
  store i32 0, i32* @i, align 4
  br label %22

22:                                               ; preds = %29, %21
  %23 = load i32, i32* @i, align 4
  %24 = sext i32 %23 to i64
  %25 = getelementptr inbounds [200 x i8], [200 x i8]* @B, i64 0, i64 %24
  %26 = load i8, i8* %25, align 1
  %27 = sext i8 %26 to i32
  %28 = icmp ne i32 %27, 0
  br i1 %28, label %29, label %40

29:                                               ; preds = %22
  %30 = load i32, i32* @i, align 4
  %31 = sext i32 %30 to i64
  %32 = getelementptr inbounds [200 x i8], [200 x i8]* @B, i64 0, i64 %31
  %33 = load i8, i8* %32, align 1
  %34 = sext i8 %33 to i64
  %35 = getelementptr inbounds [256 x i32], [256 x i32]* @b, i64 0, i64 %34
  %36 = load i32, i32* %35, align 4
  %37 = add nsw i32 %36, 1
  store i32 %37, i32* %35, align 4
  %38 = load i32, i32* @i, align 4
  %39 = add nsw i32 %38, 1
  store i32 %39, i32* @i, align 4
  br label %22

40:                                               ; preds = %22
  store i32 0, i32* @i, align 4
  br label %41

41:                                               ; preds = %57, %40
  %42 = load i32, i32* @i, align 4
  %43 = icmp slt i32 %42, 256
  br i1 %43, label %44, label %60

44:                                               ; preds = %41
  %45 = load i32, i32* @i, align 4
  %46 = sext i32 %45 to i64
  %47 = getelementptr inbounds [256 x i32], [256 x i32]* @a, i64 0, i64 %46
  %48 = load i32, i32* %47, align 4
  %49 = load i32, i32* @i, align 4
  %50 = sext i32 %49 to i64
  %51 = getelementptr inbounds [256 x i32], [256 x i32]* @b, i64 0, i64 %50
  %52 = load i32, i32* %51, align 4
  %53 = icmp ne i32 %48, %52
  br i1 %53, label %54, label %56

54:                                               ; preds = %44
  %55 = call i32 (i8*, ...) @printf(i8* getelementptr inbounds ([3 x i8], [3 x i8]* @.str.1, i64 0, i64 0))
  store i32 0, i32* %1, align 4
  br label %62

56:                                               ; preds = %44
  br label %57

57:                                               ; preds = %56
  %58 = load i32, i32* @i, align 4
  %59 = add nsw i32 %58, 1
  store i32 %59, i32* @i, align 4
  br label %41

60:                                               ; preds = %41
  %61 = call i32 (i8*, ...) @printf(i8* getelementptr inbounds ([4 x i8], [4 x i8]* @.str.2, i64 0, i64 0))
  br label %62

62:                                               ; preds = %60, %54
  %63 = load i32, i32* %1, align 4
  ret i32 %63
}

declare dso_local i32 @__isoc99_scanf(i8*, ...) #1

declare dso_local i32 @printf(i8*, ...) #1


!llvm.module.flags = !{!0}
!llvm.ident = !{!1}

!0 = !{i32 1, !"wchar_size", i32 4}
!1 = !{!"clang version 10.0.0-4ubuntu1 "}
